target datalayout = "e-m:e-p270:32:32-p271:32:32-p272:64:64-i64:64-i128:128-f80:128-n8:16:32:64-S128"
target triple = "x86_64-unknown-linux-gnu"

%"class.__gnu_cxx::__normal_iterator.280" = type { ptr }
%"struct.__gnu_cxx::__ops::_Iter_comp_iter" = type { %class.anon.276 }
%class.anon.276 = type { i8 }

; Function Attrs: mustprogress nounwind
define linkonce_odr dso_local void @_ZN9__gnu_cxx17__normal_iteratorIPPN4mold3elf6SymbolINS2_5PPC32EEESt6vectorIS6_SaIS6_EEEC2ERKS7_(ptr noundef nonnull align 8 dereferenceable(8) %this, ptr noundef nonnull align 8 dereferenceable(8) %__i) unnamed_addr #4 comdat align 2 {
entry:
  %this.addr = alloca ptr, align 8
  %__i.addr = alloca ptr, align 8
  store ptr %this, ptr %this.addr, align 8
  store ptr %__i, ptr %__i.addr, align 8
  %this1 = load ptr, ptr %this.addr, align 8
  %_M_current = getelementptr inbounds %"class.__gnu_cxx::__normal_iterator.280", ptr %this1, i32 0, i32 0
  %0 = load ptr, ptr %__i.addr, align 8
  %1 = load ptr, ptr %0, align 8
  store ptr %1, ptr %_M_current, align 8
  ret void
}

; Function Attrs: mustprogress nounwind
define linkonce_odr dso_local noundef nonnull align 8 dereferenceable(8) ptr @_ZNK9__gnu_cxx17__normal_iteratorIPPN4mold3elf6SymbolINS2_5PPC32EEESt6vectorIS6_SaIS6_EEE4baseEv(ptr noundef nonnull align 8 dereferenceable(8) %this) #4 comdat align 2 {
entry:
  %this.addr = alloca ptr, align 8
  store ptr %this, ptr %this.addr, align 8
  %this1 = load ptr, ptr %this.addr, align 8
  %_M_current = getelementptr inbounds %"class.__gnu_cxx::__normal_iterator.280", ptr %this1, i32 0, i32 0
  ret ptr %_M_current
}

; Function Attrs: mustprogress nounwind
define linkonce_odr dso_local ptr @_ZNK9__gnu_cxx17__normal_iteratorIPPN4mold3elf6SymbolINS2_5PPC32EEESt6vectorIS6_SaIS6_EEEplEl(ptr noundef nonnull align 8 dereferenceable(8) %this, i64 noundef %__n) #4 comdat align 2 {
entry:
  %retval = alloca %"class.__gnu_cxx::__normal_iterator.280", align 8
  %this.addr = alloca ptr, align 8
  %__n.addr = alloca i64, align 8
  %ref.tmp = alloca ptr, align 8
  store ptr %this, ptr %this.addr, align 8
  store i64 %__n, ptr %__n.addr, align 8
  %this1 = load ptr, ptr %this.addr, align 8
  %_M_current = getelementptr inbounds %"class.__gnu_cxx::__normal_iterator.280", ptr %this1, i32 0, i32 0
  %0 = load ptr, ptr %_M_current, align 8
  %1 = load i64, ptr %__n.addr, align 8
  %add.ptr = getelementptr inbounds ptr, ptr %0, i64 %1
  store ptr %add.ptr, ptr %ref.tmp, align 8
  call void @_ZN9__gnu_cxx17__normal_iteratorIPPN4mold3elf6SymbolINS2_5PPC32EEESt6vectorIS6_SaIS6_EEEC2ERKS7_(ptr noundef nonnull align 8 dereferenceable(8) %retval, ptr noundef nonnull align 8 dereferenceable(8) %ref.tmp) #3
  %coerce.dive = getelementptr inbounds %"class.__gnu_cxx::__normal_iterator.280", ptr %retval, i32 0, i32 0
  %2 = load ptr, ptr %coerce.dive, align 8
  ret ptr %2
}

; Function Attrs: mustprogress nounwind
define linkonce_odr dso_local noundef i64 @_ZN9__gnu_cxxmiIPPN4mold3elf6SymbolINS2_5PPC32EEESt6vectorIS6_SaIS6_EEEENS_17__normal_iteratorIT_T0_E15difference_typeERKSE_SH_(ptr noundef nonnull align 8 dereferenceable(8) %__lhs, ptr noundef nonnull align 8 dereferenceable(8) %__rhs) #4 comdat {
entry:
  %__lhs.addr = alloca ptr, align 8
  %__rhs.addr = alloca ptr, align 8
  store ptr %__lhs, ptr %__lhs.addr, align 8
  store ptr %__rhs, ptr %__rhs.addr, align 8
  %0 = load ptr, ptr %__lhs.addr, align 8
  %call = call noundef nonnull align 8 dereferenceable(8) ptr @_ZNK9__gnu_cxx17__normal_iteratorIPPN4mold3elf6SymbolINS2_5PPC32EEESt6vectorIS6_SaIS6_EEE4baseEv(ptr noundef nonnull align 8 dereferenceable(8) %0) #3
  %1 = load ptr, ptr %call, align 8
  %2 = load ptr, ptr %__rhs.addr, align 8
  %call1 = call noundef nonnull align 8 dereferenceable(8) ptr @_ZNK9__gnu_cxx17__normal_iteratorIPPN4mold3elf6SymbolINS2_5PPC32EEESt6vectorIS6_SaIS6_EEE4baseEv(ptr noundef nonnull align 8 dereferenceable(8) %2) #3
  %3 = load ptr, ptr %call1, align 8
  %sub.ptr.lhs.cast = ptrtoint ptr %1 to i64
  %sub.ptr.rhs.cast = ptrtoint ptr %3 to i64
  %sub.ptr.sub = sub i64 %sub.ptr.lhs.cast, %sub.ptr.rhs.cast
  %sub.ptr.div = sdiv exact i64 %sub.ptr.sub, 8
  ret i64 %sub.ptr.div
}

; Function Attrs: mustprogress nounwind
define internal void @"_ZSt22__stable_sort_adaptiveIN9__gnu_cxx17__normal_iteratorIPPN4mold3elf6SymbolINS3_5PPC32EEESt6vectorIS7_SaIS7_EEEES8_lNS0_5__ops15_Iter_comp_iterIZNS3_13OutputSectionIS5_E29create_range_extension_thunksERNS3_7ContextIS5_EEE3$_2EEEvT_SM_T0_T1_T2_"(ptr %__first.coerce, ptr %__last.coerce, ptr noundef %__buffer, i64 noundef %__buffer_size) #4 {
entry:
  %__first = alloca %"class.__gnu_cxx::__normal_iterator.280", align 8
  %__last = alloca %"class.__gnu_cxx::__normal_iterator.280", align 8
  %__comp = alloca %"struct.__gnu_cxx::__ops::_Iter_comp_iter", align 1
  %__buffer.addr = alloca ptr, align 8
  %__buffer_size.addr = alloca i64, align 8
  %__len = alloca i64, align 8
  %__middle = alloca %"class.__gnu_cxx::__normal_iterator.280", align 8
  %agg.tmp = alloca %"class.__gnu_cxx::__normal_iterator.280", align 8
  %agg.tmp4 = alloca %"class.__gnu_cxx::__normal_iterator.280", align 8
  %agg.tmp5 = alloca %"struct.__gnu_cxx::__ops::_Iter_comp_iter", align 1
  %agg.tmp8 = alloca %"class.__gnu_cxx::__normal_iterator.280", align 8
  %agg.tmp9 = alloca %"class.__gnu_cxx::__normal_iterator.280", align 8
  %agg.tmp10 = alloca %"struct.__gnu_cxx::__ops::_Iter_comp_iter", align 1
  %agg.tmp13 = alloca %"class.__gnu_cxx::__normal_iterator.280", align 8
  %agg.tmp14 = alloca %"class.__gnu_cxx::__normal_iterator.280", align 8
  %agg.tmp15 = alloca %"struct.__gnu_cxx::__ops::_Iter_comp_iter", align 1
  %agg.tmp18 = alloca %"class.__gnu_cxx::__normal_iterator.280", align 8
  %agg.tmp19 = alloca %"class.__gnu_cxx::__normal_iterator.280", align 8
  %agg.tmp20 = alloca %"struct.__gnu_cxx::__ops::_Iter_comp_iter", align 1
  %agg.tmp23 = alloca %"class.__gnu_cxx::__normal_iterator.280", align 8
  %agg.tmp24 = alloca %"class.__gnu_cxx::__normal_iterator.280", align 8
  %agg.tmp25 = alloca %"class.__gnu_cxx::__normal_iterator.280", align 8
  %agg.tmp28 = alloca %"struct.__gnu_cxx::__ops::_Iter_comp_iter", align 1
  %coerce.dive = getelementptr inbounds %"class.__gnu_cxx::__normal_iterator.280", ptr %__first, i32 0, i32 0
  store ptr %__first.coerce, ptr %coerce.dive, align 8
  %coerce.dive1 = getelementptr inbounds %"class.__gnu_cxx::__normal_iterator.280", ptr %__last, i32 0, i32 0
  store ptr %__last.coerce, ptr %coerce.dive1, align 8
  store ptr %__buffer, ptr %__buffer.addr, align 8
  store i64 %__buffer_size, ptr %__buffer_size.addr, align 8
  %call = call noundef i64 @_ZN9__gnu_cxxmiIPPN4mold3elf6SymbolINS2_5PPC32EEESt6vectorIS6_SaIS6_EEEENS_17__normal_iteratorIT_T0_E15difference_typeERKSE_SH_(ptr noundef nonnull align 8 dereferenceable(8) %__last, ptr noundef nonnull align 8 dereferenceable(8) %__first) #3
  %add = add nsw i64 %call, 1
  %div = sdiv i64 %add, 2
  store i64 %div, ptr %__len, align 8
  %0 = load i64, ptr %__len, align 8
  %call2 = call ptr @_ZNK9__gnu_cxx17__normal_iteratorIPPN4mold3elf6SymbolINS2_5PPC32EEESt6vectorIS6_SaIS6_EEEplEl(ptr noundef nonnull align 8 dereferenceable(8) %__first, i64 noundef %0) #3
  %coerce.dive3 = getelementptr inbounds %"class.__gnu_cxx::__normal_iterator.280", ptr %__middle, i32 0, i32 0
  store ptr %call2, ptr %coerce.dive3, align 8
  %1 = load i64, ptr %__len, align 8
  %2 = load i64, ptr %__buffer_size.addr, align 8
  %cmp = icmp sgt i64 %1, %2
  br i1 %cmp, label %if.then, label %if.else

if.then:                                          ; preds = %entry
  call void @llvm.memcpy.p0.p0.i64(ptr align 8 %agg.tmp, ptr align 8 %__first, i64 8, i1 false)
  call void @llvm.memcpy.p0.p0.i64(ptr align 8 %agg.tmp4, ptr align 8 %__middle, i64 8, i1 false)
  %3 = load ptr, ptr %__buffer.addr, align 8
  %4 = load i64, ptr %__buffer_size.addr, align 8
  call void @llvm.memcpy.p0.p0.i64(ptr align 1 %agg.tmp5, ptr align 1 %__comp, i64 1, i1 false)
  %coerce.dive6 = getelementptr inbounds %"class.__gnu_cxx::__normal_iterator.280", ptr %agg.tmp, i32 0, i32 0
  %5 = load ptr, ptr %coerce.dive6, align 8
  %coerce.dive7 = getelementptr inbounds %"class.__gnu_cxx::__normal_iterator.280", ptr %agg.tmp4, i32 0, i32 0
  %6 = load ptr, ptr %coerce.dive7, align 8
  call void @"_ZSt22__stable_sort_adaptiveIN9__gnu_cxx17__normal_iteratorIPPN4mold3elf6SymbolINS3_5PPC32EEESt6vectorIS7_SaIS7_EEEES8_lNS0_5__ops15_Iter_comp_iterIZNS3_13OutputSectionIS5_E29create_range_extension_thunksERNS3_7ContextIS5_EEE3$_2EEEvT_SM_T0_T1_T2_"(ptr %5, ptr %6, ptr noundef %3, i64 noundef %4)
  call void @llvm.memcpy.p0.p0.i64(ptr align 8 %agg.tmp8, ptr align 8 %__middle, i64 8, i1 false)
  call void @llvm.memcpy.p0.p0.i64(ptr align 8 %agg.tmp9, ptr align 8 %__last, i64 8, i1 false)
  %7 = load ptr, ptr %__buffer.addr, align 8
  %8 = load i64, ptr %__buffer_size.addr, align 8
  call void @llvm.memcpy.p0.p0.i64(ptr align 1 %agg.tmp10, ptr align 1 %__comp, i64 1, i1 false)
  %coerce.dive11 = getelementptr inbounds %"class.__gnu_cxx::__normal_iterator.280", ptr %agg.tmp8, i32 0, i32 0
  %9 = load ptr, ptr %coerce.dive11, align 8
  %coerce.dive12 = getelementptr inbounds %"class.__gnu_cxx::__normal_iterator.280", ptr %agg.tmp9, i32 0, i32 0
  %10 = load ptr, ptr %coerce.dive12, align 8
  call void @"_ZSt22__stable_sort_adaptiveIN9__gnu_cxx17__normal_iteratorIPPN4mold3elf6SymbolINS3_5PPC32EEESt6vectorIS7_SaIS7_EEEES8_lNS0_5__ops15_Iter_comp_iterIZNS3_13OutputSectionIS5_E29create_range_extension_thunksERNS3_7ContextIS5_EEE3$_2EEEvT_SM_T0_T1_T2_"(ptr %9, ptr %10, ptr noundef %7, i64 noundef %8)
  br label %if.end

if.else:                                          ; preds = %entry
  call void @llvm.memcpy.p0.p0.i64(ptr align 8 %agg.tmp13, ptr align 8 %__first, i64 8, i1 false)
  call void @llvm.memcpy.p0.p0.i64(ptr align 8 %agg.tmp14, ptr align 8 %__middle, i64 8, i1 false)
  %11 = load ptr, ptr %__buffer.addr, align 8
  call void @llvm.memcpy.p0.p0.i64(ptr align 1 %agg.tmp15, ptr align 1 %__comp, i64 1, i1 false)
  %coerce.dive16 = getelementptr inbounds %"class.__gnu_cxx::__normal_iterator.280", ptr %agg.tmp13, i32 0, i32 0
  %12 = load ptr, ptr %coerce.dive16, align 8
  %coerce.dive17 = getelementptr inbounds %"class.__gnu_cxx::__normal_iterator.280", ptr %agg.tmp14, i32 0, i32 0
  %13 = load ptr, ptr %coerce.dive17, align 8
  call void @"_ZSt24__merge_sort_with_bufferIN9__gnu_cxx17__normal_iteratorIPPN4mold3elf6SymbolINS3_5PPC32EEESt6vectorIS7_SaIS7_EEEES8_NS0_5__ops15_Iter_comp_iterIZNS3_13OutputSectionIS5_E29create_range_extension_thunksERNS3_7ContextIS5_EEE3$_2EEEvT_SM_T0_T1_"(ptr %12, ptr %13, ptr noundef %11)
  call void @llvm.memcpy.p0.p0.i64(ptr align 8 %agg.tmp18, ptr align 8 %__middle, i64 8, i1 false)
  call void @llvm.memcpy.p0.p0.i64(ptr align 8 %agg.tmp19, ptr align 8 %__last, i64 8, i1 false)
  %14 = load ptr, ptr %__buffer.addr, align 8
  call void @llvm.memcpy.p0.p0.i64(ptr align 1 %agg.tmp20, ptr align 1 %__comp, i64 1, i1 false)
  %coerce.dive21 = getelementptr inbounds %"class.__gnu_cxx::__normal_iterator.280", ptr %agg.tmp18, i32 0, i32 0
  %15 = load ptr, ptr %coerce.dive21, align 8
  %coerce.dive22 = getelementptr inbounds %"class.__gnu_cxx::__normal_iterator.280", ptr %agg.tmp19, i32 0, i32 0
  %16 = load ptr, ptr %coerce.dive22, align 8
  call void @"_ZSt24__merge_sort_with_bufferIN9__gnu_cxx17__normal_iteratorIPPN4mold3elf6SymbolINS3_5PPC32EEESt6vectorIS7_SaIS7_EEEES8_NS0_5__ops15_Iter_comp_iterIZNS3_13OutputSectionIS5_E29create_range_extension_thunksERNS3_7ContextIS5_EEE3$_2EEEvT_SM_T0_T1_"(ptr %15, ptr %16, ptr noundef %14)
  br label %if.end

if.end:                                           ; preds = %if.else, %if.then
  call void @llvm.memcpy.p0.p0.i64(ptr align 8 %agg.tmp23, ptr align 8 %__first, i64 8, i1 false)
  call void @llvm.memcpy.p0.p0.i64(ptr align 8 %agg.tmp24, ptr align 8 %__middle, i64 8, i1 false)
  call void @llvm.memcpy.p0.p0.i64(ptr align 8 %agg.tmp25, ptr align 8 %__last, i64 8, i1 false)
  %call26 = call noundef i64 @_ZN9__gnu_cxxmiIPPN4mold3elf6SymbolINS2_5PPC32EEESt6vectorIS6_SaIS6_EEEENS_17__normal_iteratorIT_T0_E15difference_typeERKSE_SH_(ptr noundef nonnull align 8 dereferenceable(8) %__middle, ptr noundef nonnull align 8 dereferenceable(8) %__first) #3
  %call27 = call noundef i64 @_ZN9__gnu_cxxmiIPPN4mold3elf6SymbolINS2_5PPC32EEESt6vectorIS6_SaIS6_EEEENS_17__normal_iteratorIT_T0_E15difference_typeERKSE_SH_(ptr noundef nonnull align 8 dereferenceable(8) %__last, ptr noundef nonnull align 8 dereferenceable(8) %__middle) #3
  %17 = load ptr, ptr %__buffer.addr, align 8
  %18 = load i64, ptr %__buffer_size.addr, align 8
  call void @llvm.memcpy.p0.p0.i64(ptr align 1 %agg.tmp28, ptr align 1 %__comp, i64 1, i1 false)
  %coerce.dive29 = getelementptr inbounds %"class.__gnu_cxx::__normal_iterator.280", ptr %agg.tmp23, i32 0, i32 0
  %19 = load ptr, ptr %coerce.dive29, align 8
  %coerce.dive30 = getelementptr inbounds %"class.__gnu_cxx::__normal_iterator.280", ptr %agg.tmp24, i32 0, i32 0
  %20 = load ptr, ptr %coerce.dive30, align 8
  %coerce.dive31 = getelementptr inbounds %"class.__gnu_cxx::__normal_iterator.280", ptr %agg.tmp25, i32 0, i32 0
  %21 = load ptr, ptr %coerce.dive31, align 8
  call void @"_ZSt16__merge_adaptiveIN9__gnu_cxx17__normal_iteratorIPPN4mold3elf6SymbolINS3_5PPC32EEESt6vectorIS7_SaIS7_EEEElS8_NS0_5__ops15_Iter_comp_iterIZNS3_13OutputSectionIS5_E29create_range_extension_thunksERNS3_7ContextIS5_EEE3$_2EEEvT_SM_SM_T0_SN_T1_SN_T2_"(ptr %19, ptr %20, ptr %21, i64 noundef %call26, i64 noundef %call27, ptr noundef %17, i64 noundef %18)
  ret void
}